; Function Attrs: nofree norecurse nosync nounwind memory(readwrite, inaccessiblemem: none) uwtable
define range(i32 0, 2) i32 @If_CluCheckNonDisjointGroup(ptr noundef captures(none) %0, i32 noundef %1, ptr noundef captures(none) %2, ptr noundef captures(none) %3, ptr noundef captures(none) %4) local_unnamed_addr #11 {
  %6 = alloca [2 x [1024 x i64]], align 16
  %7 = getelementptr inbounds nuw i8, ptr %4, i64 1
  %8 = load i8, ptr %7, align 1, !tbaa !112
  %.off = add i8 %8, -3
  %switch = icmp ult i8 %.off, 2
  br i1 %switch, label %9, label %91

9:                                                ; preds = %5
  call void @llvm.lifetime.start.p0(i64 16384, ptr nonnull %6) #22
  %10 = load i8, ptr %4, align 1, !tbaa !110
  %11 = sext i8 %10 to i32
  %.not40 = icmp sgt i8 %10, 0
  br i1 %.not40, label %.lr.ph, label %.sink.split

.lr.ph:                                           ; preds = %9
  %12 = getelementptr inbounds nuw i8, ptr %4, i64 2
  %13 = getelementptr inbounds nuw i8, ptr %6, i64 8192
  %14 = icmp slt i32 %1, 7
  %15 = add nsw i32 %1, -6
  %16 = shl nuw i32 1, %15
  %.fr = freeze i32 %16
  %17 = select i1 %14, i32 1, i32 %.fr
  %18 = icmp sgt i32 %17, 0
  %wide.trip.count73.i = zext nneg i32 %17 to i64
  %wide.trip.count78 = zext nneg i32 %11 to i64
  br i1 %18, label %.lr.ph.split.us, label %.lr.ph.split.split

.lr.ph.split.us:                                  ; preds = %.lr.ph, %67
  %indvars.iv75 = phi i64 [ %indvars.iv.next76, %67 ], [ 0, %.lr.ph ]
  %19 = getelementptr inbounds nuw [16 x i8], ptr %12, i64 0, i64 %indvars.iv75
  %20 = load i8, ptr %19, align 1, !tbaa !59
  %21 = sext i8 %20 to i64
  %22 = getelementptr inbounds i32, ptr %2, i64 %21
  %23 = load i32, ptr %22, align 4, !tbaa !6
  %24 = icmp slt i32 %23, 6
  br i1 %24, label %.lr.ph.i.us, label %.preheader.lr.ph.i.us

.preheader.lr.ph.i.us:                            ; preds = %.lr.ph.split.us
  %25 = add nsw i32 %23, -6
  %.not.i.us = icmp eq i32 %25, 31
  %26 = shl i32 2, %25
  %27 = sext i32 %26 to i64
  br i1 %.not.i.us, label %If_CluCofactors.exit.us, label %.preheader.us.preheader.i.us

.preheader.us.preheader.i.us:                     ; preds = %.preheader.lr.ph.i.us
  %28 = shl nuw i32 1, %25
  %29 = sext i32 %28 to i64
  %smax.i.us = tail call i32 @llvm.smax.i32(i32 %28, i32 1)
  %wide.trip.count.i.us = zext nneg i32 %smax.i.us to i64
  br label %.preheader.us.i.us

.preheader.us.i.us:                               ; preds = %._crit_edge.us.i.us, %.preheader.us.preheader.i.us
  %.065.us.i.us = phi ptr [ %40, %._crit_edge.us.i.us ], [ %0, %.preheader.us.preheader.i.us ]
  %.05264.us.i.us = phi i32 [ %43, %._crit_edge.us.i.us ], [ 0, %.preheader.us.preheader.i.us ]
  %.05463.us.i.us = phi ptr [ %41, %._crit_edge.us.i.us ], [ %6, %.preheader.us.preheader.i.us ]
  %.05662.us.i.us = phi ptr [ %42, %._crit_edge.us.i.us ], [ %13, %.preheader.us.preheader.i.us ]
  br label %30

30:                                               ; preds = %30, %.preheader.us.i.us
  %indvars.iv.i.us = phi i64 [ 0, %.preheader.us.i.us ], [ %indvars.iv.next.i.us, %30 ]
  %31 = getelementptr inbounds nuw i64, ptr %.065.us.i.us, i64 %indvars.iv.i.us
  %32 = load i64, ptr %31, align 8, !tbaa !16
  %33 = add nuw nsw i64 %indvars.iv.i.us, %29
  %34 = getelementptr inbounds i64, ptr %.05463.us.i.us, i64 %33
  store i64 %32, ptr %34, align 8, !tbaa !16
  %35 = getelementptr inbounds nuw i64, ptr %.05463.us.i.us, i64 %indvars.iv.i.us
  store i64 %32, ptr %35, align 8, !tbaa !16
  %36 = getelementptr inbounds i64, ptr %.065.us.i.us, i64 %33
  %37 = load i64, ptr %36, align 8, !tbaa !16
  %38 = getelementptr inbounds i64, ptr %.05662.us.i.us, i64 %33
  store i64 %37, ptr %38, align 8, !tbaa !16
  %39 = getelementptr inbounds nuw i64, ptr %.05662.us.i.us, i64 %indvars.iv.i.us
  store i64 %37, ptr %39, align 8, !tbaa !16
  %indvars.iv.next.i.us = add nuw nsw i64 %indvars.iv.i.us, 1
  %exitcond.not.i.us = icmp eq i64 %indvars.iv.next.i.us, %wide.trip.count.i.us
  br i1 %exitcond.not.i.us, label %._crit_edge.us.i.us, label %30, !llvm.loop !149

._crit_edge.us.i.us:                              ; preds = %30
  %40 = getelementptr inbounds i64, ptr %.065.us.i.us, i64 %27
  %41 = getelementptr inbounds i64, ptr %.05463.us.i.us, i64 %27
  %42 = getelementptr inbounds i64, ptr %.05662.us.i.us, i64 %27
  %43 = add nsw i32 %.05264.us.i.us, %26
  %44 = icmp slt i32 %43, %17
  br i1 %44, label %.preheader.us.i.us, label %If_CluCofactors.exit.us, !llvm.loop !150

.lr.ph.i.us:                                      ; preds = %.lr.ph.split.us
  %45 = shl nuw nsw i32 1, %23
  %46 = sext i32 %23 to i64
  %47 = getelementptr inbounds [6 x i64], ptr @s_Truths6, i64 0, i64 %46
  %48 = load i64, ptr %47, align 8, !tbaa !16
  %49 = xor i64 %48, -1
  %50 = zext nneg i32 %45 to i64
  br label %51

51:                                               ; preds = %51, %.lr.ph.i.us
  %indvars.iv70.i.us = phi i64 [ 0, %.lr.ph.i.us ], [ %indvars.iv.next71.i.us, %51 ]
  %52 = getelementptr inbounds nuw i64, ptr %0, i64 %indvars.iv70.i.us
  %53 = load i64, ptr %52, align 8, !tbaa !16
  %54 = and i64 %53, %49
  %55 = shl i64 %54, %50
  %56 = or i64 %55, %54
  %57 = getelementptr inbounds nuw i64, ptr %6, i64 %indvars.iv70.i.us
  store i64 %56, ptr %57, align 8, !tbaa !16
  %58 = and i64 %53, %48
  %59 = lshr i64 %58, %50
  %60 = or i64 %59, %58
  %61 = getelementptr inbounds nuw i64, ptr %13, i64 %indvars.iv70.i.us
  store i64 %60, ptr %61, align 8, !tbaa !16
  %indvars.iv.next71.i.us = add nuw nsw i64 %indvars.iv70.i.us, 1
  %exitcond74.not.i.us = icmp eq i64 %indvars.iv.next71.i.us, %wide.trip.count73.i
  br i1 %exitcond74.not.i.us, label %If_CluCofactors.exit.us, label %51, !llvm.loop !148

If_CluCofactors.exit.us:                          ; preds = %._crit_edge.us.i.us, %51, %.preheader.lr.ph.i.us
  %62 = call i32 @If_CluCountCofs(ptr noundef nonnull %6, i32 noundef %1, i32 noundef %11, i32 noundef 0, ptr noundef null)
  %63 = icmp sgt i32 %62, 2
  br i1 %63, label %67, label %64

64:                                               ; preds = %If_CluCofactors.exit.us
  %65 = call i32 @If_CluCountCofs(ptr noundef nonnull %13, i32 noundef %1, i32 noundef %11, i32 noundef 0, ptr noundef null)
  %66 = icmp sgt i32 %65, 2
  br i1 %66, label %67, label %.split.us

67:                                               ; preds = %64, %If_CluCofactors.exit.us
  %indvars.iv.next76 = add nuw nsw i64 %indvars.iv75, 1
  %exitcond79.not = icmp eq i64 %indvars.iv.next76, %wide.trip.count78
  br i1 %exitcond79.not, label %.sink.split, label %.lr.ph.split.us, !llvm.loop !164

.lr.ph.split.split:                               ; preds = %.lr.ph, %90
  %indvars.iv = phi i64 [ %indvars.iv.next, %90 ], [ 0, %.lr.ph ]
  %68 = getelementptr inbounds nuw [16 x i8], ptr %12, i64 0, i64 %indvars.iv
  %69 = load i8, ptr %68, align 1, !tbaa !59
  %70 = call i32 @If_CluCountCofs(ptr noundef nonnull %6, i32 noundef %1, i32 noundef %11, i32 noundef 0, ptr noundef null)
  %71 = icmp sgt i32 %70, 2
  br i1 %71, label %90, label %72

72:                                               ; preds = %.lr.ph.split.split
  %73 = call i32 @If_CluCountCofs(ptr noundef nonnull %13, i32 noundef %1, i32 noundef %11, i32 noundef 0, ptr noundef null)
  %74 = icmp sgt i32 %73, 2
  br i1 %74, label %90, label %.split.us

.split.us:                                        ; preds = %72, %64
  %.us-phi42 = phi i8 [ %20, %64 ], [ %69, %72 ]
  %75 = sext i8 %.us-phi42 to i32
  %76 = add nsw i32 %1, -1
  tail call void @If_CluMoveVar(ptr noundef %0, i32 noundef %1, ptr noundef %2, ptr noundef %3, i32 noundef %75, i32 noundef %76)
  %77 = load i8, ptr %4, align 1, !tbaa !110
  %78 = sext i8 %77 to i32
  %79 = icmp sgt i8 %77, 0
  br i1 %79, label %.lr.ph57.preheader, label %.sink.split

.lr.ph57.preheader:                               ; preds = %.split.us
  %80 = zext nneg i8 %77 to i64
  br label %.lr.ph57

.lr.ph57:                                         ; preds = %.lr.ph57.preheader, %.lr.ph57
  %indvars.iv80 = phi i64 [ 0, %.lr.ph57.preheader ], [ %indvars.iv.next81, %.lr.ph57 ]
  %81 = trunc nuw nsw i64 %indvars.iv80 to i32
  %82 = add i32 %1, %81
  %83 = sub i32 %82, %78
  %84 = sext i32 %83 to i64
  %85 = getelementptr inbounds i32, ptr %3, i64 %84
  %86 = load i32, ptr %85, align 4, !tbaa !6
  %87 = trunc i32 %86 to i8
  %88 = getelementptr inbounds nuw [16 x i8], ptr %12, i64 0, i64 %indvars.iv80
  store i8 %87, ptr %88, align 1, !tbaa !59
  %indvars.iv.next81 = add nuw nsw i64 %indvars.iv80, 1
  %89 = icmp samesign ult i64 %indvars.iv.next81, %80
  br i1 %89, label %.lr.ph57, label %.sink.split, !llvm.loop !165

90:                                               ; preds = %72, %.lr.ph.split.split
  %indvars.iv.next = add nuw nsw i64 %indvars.iv, 1
  %exitcond.not = icmp eq i64 %indvars.iv.next, %wide.trip.count78
  br i1 %exitcond.not, label %.sink.split, label %.lr.ph.split.split, !llvm.loop !164

.sink.split:                                      ; preds = %90, %67, %.lr.ph57, %9, %.split.us
  %.1.ph = phi i32 [ 1, %.split.us ], [ 0, %9 ], [ 1, %.lr.ph57 ], [ 0, %67 ], [ 0, %90 ]
  call void @llvm.lifetime.end.p0(i64 16384, ptr nonnull %6) #22
  br label %91

91:                                               ; preds = %.sink.split, %5
  %.1 = phi i32 [ 0, %5 ], [ %.1.ph, %.sink.split ]
  ret i32 %.1
}